target datalayout = "e-m:e-p270:32:32-p271:32:32-p272:64:64-i64:64-i128:128-f80:128-n8:16:32:64-S128"
target triple = "x86_64-pc-linux-gnu"

%class.Register = type { i32 }
%class.VMRegImpl = type { i8 }
%"class.Register::RegisterImpl" = type { i8 }
%class.frame = type { %union.anon, ptr, ptr, ptr, i32, i8, %union.anon.0, %union.anon.1 }
%union.anon = type { ptr }
%union.anon.0 = type { ptr }
%union.anon.1 = type { ptr }
%class.RegisterMap = type <{ [609 x ptr], [10 x i64], i8, [7 x i8], ptr, %class.stackChunkHandle, i32, i8, i8, i8, i8 }>
%class.stackChunkHandle = type { %class.Handle }
%class.Handle = type { ptr }

@_ZL3rbp = internal constant %class.Register { i32 5 }, align 4
@all_VMRegs = external hidden global [610 x %class.VMRegImpl], align 16
@all_RegisterImpls = external hidden global [33 x %"class.Register::RegisterImpl"], align 16

; Function Attrs: mustprogress nounwind uwtable
define linkonce_odr hidden noundef i32 @_Z12checked_castIilET_T0_(i64 noundef %0) #1 comdat {
  %2 = alloca i64, align 8
  %3 = alloca i32, align 4
  store i64 %0, ptr %2, align 8
  %4 = load i64, ptr %2, align 8
  %5 = trunc i64 %4 to i32
  store i32 %5, ptr %3, align 4
  %6 = load i32, ptr %3, align 4
  ret i32 %6
}

; Function Attrs: mustprogress nounwind uwtable
define linkonce_odr hidden noundef ptr @_ZN9VMRegImpl5firstEv() #1 comdat align 2 {
  ret ptr getelementptr inbounds (%class.VMRegImpl, ptr @all_VMRegs, i64 1)
}

; Function Attrs: mustprogress nounwind uwtable
define linkonce_odr hidden noundef i32 @_ZNK8Register12RegisterImpl12raw_encodingEv(ptr noundef nonnull align 1 dereferenceable(1) %0) #1 comdat align 2 {
  %2 = alloca ptr, align 8
  store ptr %0, ptr %2, align 8
  %3 = load ptr, ptr %2, align 8
  %4 = call noundef ptr @_ZN8Register12RegisterImpl5firstEv()
  %5 = ptrtoint ptr %3 to i64
  %6 = ptrtoint ptr %4 to i64
  %7 = sub i64 %5, %6
  %8 = call noundef i32 @_Z12checked_castIilET_T0_(i64 noundef %7)
  ret i32 %8
}

; Function Attrs: mustprogress nounwind uwtable
define linkonce_odr hidden void @_ZN11RegisterMap20check_location_validEv(ptr noundef nonnull align 8 dereferenceable(4983) %0) #1 comdat align 2 {
  %2 = alloca ptr, align 8
  store ptr %0, ptr %2, align 8
  ret void
}

; Function Attrs: mustprogress nounwind uwtable
define linkonce_odr hidden noundef i32 @_ZNK9VMRegImpl5valueEv(ptr noundef nonnull align 1 dereferenceable(1) %0) #1 comdat align 2 {
  %2 = alloca ptr, align 8
  store ptr %0, ptr %2, align 8
  %3 = load ptr, ptr %2, align 8
  %4 = call noundef ptr @_ZN9VMRegImpl5firstEv()
  %5 = ptrtoint ptr %3 to i64
  %6 = ptrtoint ptr %4 to i64
  %7 = sub i64 %5, %6
  %8 = call noundef i32 @_Z12checked_castIilET_T0_(i64 noundef %7)
  ret i32 %8
}

; Function Attrs: mustprogress nounwind uwtable
define linkonce_odr hidden noundef ptr @_ZN9VMRegImpl8as_VMRegEib(i32 noundef %0, i1 noundef zeroext %1) #1 comdat align 2 {
  %3 = alloca i32, align 4
  %4 = alloca i8, align 1
  store i32 %0, ptr %3, align 4
  %5 = zext i1 %1 to i8
  store i8 %5, ptr %4, align 1
  %6 = load i32, ptr %3, align 4
  %7 = call noundef ptr @_ZN9VMRegImpl5firstEv()
  %8 = sext i32 %6 to i64
  %9 = getelementptr inbounds %class.VMRegImpl, ptr %7, i64 %8
  ret ptr %9
}

; Function Attrs: mustprogress nounwind uwtable
define linkonce_odr hidden noundef i32 @_ZNK8Register12RegisterImpl8encodingEv(ptr noundef nonnull align 1 dereferenceable(1) %0) #1 comdat align 2 {
  %2 = alloca ptr, align 8
  store ptr %0, ptr %2, align 8
  %3 = load ptr, ptr %2, align 8
  %4 = call noundef i32 @_ZNK8Register12RegisterImpl12raw_encodingEv(ptr noundef nonnull align 1 dereferenceable(1) %3)
  ret i32 %4
}

; Function Attrs: mustprogress nounwind uwtable
define linkonce_odr hidden noundef ptr @_ZN8Register12RegisterImpl5firstEv() #1 comdat align 2 {
  ret ptr getelementptr inbounds (%"class.Register::RegisterImpl", ptr @all_RegisterImpls, i64 1)
}

; Function Attrs: mustprogress nounwind uwtable
define linkonce_odr hidden void @_ZNK5frame15assert_absoluteEv(ptr noundef nonnull align 8 dereferenceable(56) %0) #1 comdat align 2 {
  %2 = alloca ptr, align 8
  store ptr %0, ptr %2, align 8
  ret void
}

; Function Attrs: mustprogress nounwind uwtable
define linkonce_odr hidden noundef i64 @_ZNK5frame11at_absoluteEi(ptr noundef nonnull align 8 dereferenceable(56) %0, i32 noundef %1) #1 comdat align 2 {
  %3 = alloca ptr, align 8
  %4 = alloca i32, align 4
  store ptr %0, ptr %3, align 8
  store i32 %1, ptr %4, align 4
  %5 = load ptr, ptr %3, align 8
  %6 = load i32, ptr %4, align 4
  %7 = call noundef ptr @_ZNK5frame7addr_atEi(ptr noundef nonnull align 8 dereferenceable(56) %5, i32 noundef %6)
  %8 = load i64, ptr %7, align 8
  ret i64 %8
}

; Function Attrs: mustprogress nounwind uwtable
define linkonce_odr hidden noundef i64 @_ZNK5frame11at_relativeEi(ptr noundef nonnull align 8 dereferenceable(56) %0, i32 noundef %1) #1 comdat align 2 {
  %3 = alloca ptr, align 8
  %4 = alloca i32, align 4
  store ptr %0, ptr %3, align 8
  store i32 %1, ptr %4, align 4
  %5 = load ptr, ptr %3, align 8
  %6 = call noundef ptr @_ZNK5frame2fpEv(ptr noundef nonnull align 8 dereferenceable(56) %5)
  %7 = call noundef ptr @_ZNK5frame2fpEv(ptr noundef nonnull align 8 dereferenceable(56) %5)
  %8 = load i32, ptr %4, align 4
  %9 = sext i32 %8 to i64
  %10 = getelementptr inbounds i64, ptr %7, i64 %9
  %11 = load i64, ptr %10, align 8
  %12 = getelementptr inbounds i64, ptr %6, i64 %11
  %13 = ptrtoint ptr %12 to i64
  ret i64 %13
}

; Function Attrs: mustprogress nounwind uwtable
define linkonce_odr hidden noundef ptr @_ZNK5frame14sender_pc_addrEv(ptr noundef nonnull align 8 dereferenceable(56) %0) #1 comdat align 2 {
  %2 = alloca ptr, align 8
  store ptr %0, ptr %2, align 8
  %3 = load ptr, ptr %2, align 8
  %4 = call noundef ptr @_ZNK5frame7addr_atEi(ptr noundef nonnull align 8 dereferenceable(56) %3, i32 noundef 1)
  ret ptr %4
}

; Function Attrs: mustprogress nounwind uwtable
define linkonce_odr hidden noundef ptr @_ZN9VMRegImpl4nextEv(ptr noundef nonnull align 1 dereferenceable(1) %0) #1 comdat align 2 {
  %2 = alloca ptr, align 8
  store ptr %0, ptr %2, align 8
  %3 = load ptr, ptr %2, align 8
  %4 = getelementptr inbounds %class.VMRegImpl, ptr %3, i64 1
  ret ptr %4
}

; Function Attrs: mustprogress nounwind uwtable
define linkonce_odr hidden void @_ZN11RegisterMap12set_locationEP9VMRegImplPh(ptr noundef nonnull align 8 dereferenceable(4983) %0, ptr noundef %1, ptr noundef %2) #1 comdat align 2 {
  %4 = alloca ptr, align 8
  %5 = alloca ptr, align 8
  %6 = alloca ptr, align 8
  %7 = alloca i32, align 4
  store ptr %0, ptr %4, align 8
  store ptr %1, ptr %5, align 8
  store ptr %2, ptr %6, align 8
  %8 = load ptr, ptr %4, align 8
  %9 = load ptr, ptr %5, align 8
  %10 = call noundef i32 @_ZNK9VMRegImpl5valueEv(ptr noundef nonnull align 1 dereferenceable(1) %9)
  %11 = sdiv i32 %10, 64
  store i32 %11, ptr %7, align 4
  %12 = load ptr, ptr %6, align 8
  %13 = getelementptr inbounds %class.RegisterMap, ptr %8, i32 0, i32 0
  %14 = load ptr, ptr %5, align 8
  %15 = call noundef i32 @_ZNK9VMRegImpl5valueEv(ptr noundef nonnull align 1 dereferenceable(1) %14)
  %16 = sext i32 %15 to i64
  %17 = getelementptr inbounds [609 x ptr], ptr %13, i64 0, i64 %16
  store ptr %12, ptr %17, align 8
  %18 = load ptr, ptr %5, align 8
  %19 = call noundef i32 @_ZNK9VMRegImpl5valueEv(ptr noundef nonnull align 1 dereferenceable(1) %18)
  %20 = srem i32 %19, 64
  %21 = zext i32 %20 to i64
  %22 = shl i64 1, %21
  %23 = getelementptr inbounds %class.RegisterMap, ptr %8, i32 0, i32 1
  %24 = load i32, ptr %7, align 4
  %25 = sext i32 %24 to i64
  %26 = getelementptr inbounds [10 x i64], ptr %23, i64 0, i64 %25
  %27 = load i64, ptr %26, align 8
  %28 = or i64 %27, %22
  store i64 %28, ptr %26, align 8
  call void @_ZN11RegisterMap20check_location_validEv(ptr noundef nonnull align 8 dereferenceable(4983) %8)
  ret void
}

; Function Attrs: mustprogress nounwind uwtable
define linkonce_odr hidden noundef ptr @_ZNK8Register12RegisterImpl8as_VMRegEv(ptr noundef nonnull align 1 dereferenceable(1) %0) #1 comdat align 2 {
  %2 = alloca ptr, align 8
  store ptr %0, ptr %2, align 8
  %3 = load ptr, ptr %2, align 8
  %4 = call noundef i32 @_ZNK8Register12RegisterImpl8encodingEv(ptr noundef nonnull align 1 dereferenceable(1) %3)
  %5 = shl i32 %4, 1
  %6 = call noundef ptr @_ZN9VMRegImpl8as_VMRegEib(i32 noundef %5, i1 noundef zeroext false)
  ret ptr %6
}

; Function Attrs: mustprogress nounwind uwtable
define linkonce_odr hidden noundef ptr @_ZNK8RegisterptEv(ptr noundef nonnull align 4 dereferenceable(4) %0) #1 comdat align 2 {
  %2 = alloca ptr, align 8
  store ptr %0, ptr %2, align 8
  %3 = load ptr, ptr %2, align 8
  %4 = call noundef ptr @_ZN8Register12RegisterImpl5firstEv()
  %5 = getelementptr inbounds %class.Register, ptr %3, i32 0, i32 0
  %6 = load i32, ptr %5, align 4
  %7 = sext i32 %6 to i64
  %8 = getelementptr inbounds %"class.Register::RegisterImpl", ptr %4, i64 %7
  ret ptr %8
}

; Function Attrs: mustprogress nounwind uwtable
define linkonce_odr hidden noundef ptr @_ZNK5frame2fpEv(ptr noundef nonnull align 8 dereferenceable(56) %0) #1 comdat align 2 {
  %2 = alloca ptr, align 8
  store ptr %0, ptr %2, align 8
  %3 = load ptr, ptr %2, align 8
  call void @_ZNK5frame15assert_absoluteEv(ptr noundef nonnull align 8 dereferenceable(56) %3)
  %4 = getelementptr inbounds %class.frame, ptr %3, i32 0, i32 6
  %5 = load ptr, ptr %4, align 8
  ret ptr %5
}

; Function Attrs: mustprogress nounwind uwtable
define linkonce_odr hidden noundef i64 @_ZNK5frame2atEi(ptr noundef nonnull align 8 dereferenceable(56) %0, i32 noundef %1) #1 comdat align 2 {
  %3 = alloca ptr, align 8
  %4 = alloca i32, align 4
  store ptr %0, ptr %3, align 8
  store i32 %1, ptr %4, align 4
  %5 = load ptr, ptr %3, align 8
  %6 = getelementptr inbounds %class.frame, ptr %5, i32 0, i32 5
  %7 = load i8, ptr %6, align 4
  %8 = trunc i8 %7 to i1
  br i1 %8, label %9, label %12

9:                                                ; preds = %2
  %10 = load i32, ptr %4, align 4
  %11 = call noundef i64 @_ZNK5frame11at_relativeEi(ptr noundef nonnull align 8 dereferenceable(56) %5, i32 noundef %10)
  br label %15

12:                                               ; preds = %2
  %13 = load i32, ptr %4, align 4
  %14 = call noundef i64 @_ZNK5frame11at_absoluteEi(ptr noundef nonnull align 8 dereferenceable(56) %5, i32 noundef %13)
  br label %15

15:                                               ; preds = %12, %9
  %16 = phi i64 [ %11, %9 ], [ %14, %12 ]
  ret i64 %16
}

; Function Attrs: mustprogress nounwind uwtable
define linkonce_odr hidden noundef ptr @_ZNK11RegisterMap6threadEv(ptr noundef nonnull align 8 dereferenceable(4983) %0) #1 comdat align 2 {
  %2 = alloca ptr, align 8
  store ptr %0, ptr %2, align 8
  %3 = load ptr, ptr %2, align 8
  %4 = getelementptr inbounds %class.RegisterMap, ptr %3, i32 0, i32 4
  %5 = load ptr, ptr %4, align 8
  ret ptr %5
}

; Function Attrs: mustprogress nounwind uwtable
define linkonce_odr hidden noundef zeroext i1 @_ZNK11RegisterMap9walk_contEv(ptr noundef nonnull align 8 dereferenceable(4983) %0) #1 comdat align 2 {
  %2 = alloca ptr, align 8
  store ptr %0, ptr %2, align 8
  %3 = load ptr, ptr %2, align 8
  %4 = getelementptr inbounds %class.RegisterMap, ptr %3, i32 0, i32 9
  %5 = load i8, ptr %4, align 2
  %6 = trunc i8 %5 to i1
  ret i1 %6
}

; Function Attrs: mustprogress nounwind uwtable
define linkonce_odr hidden noundef ptr @_ZNK5frame9sender_pcEv(ptr noundef nonnull align 8 dereferenceable(56) %0) #1 comdat align 2 {
  %2 = alloca ptr, align 8
  store ptr %0, ptr %2, align 8
  %3 = load ptr, ptr %2, align 8
  %4 = call noundef ptr @_ZNK5frame14sender_pc_addrEv(ptr noundef nonnull align 8 dereferenceable(56) %3)
  %5 = load ptr, ptr %4, align 8
  ret ptr %5
}

; Function Attrs: mustprogress nounwind uwtable
define linkonce_odr hidden void @_ZN5frame26update_map_with_saved_linkI11RegisterMapEEvPT_PPl(ptr noundef %0, ptr noundef %1) #1 comdat align 2 {
  %3 = alloca ptr, align 8
  %4 = alloca ptr, align 8
  store ptr %0, ptr %3, align 8
  store ptr %1, ptr %4, align 8
  %5 = load ptr, ptr %3, align 8
  %6 = call noundef ptr @_ZNK8RegisterptEv(ptr noundef nonnull align 4 dereferenceable(4) @_ZL3rbp)
  %7 = call noundef ptr @_ZNK8Register12RegisterImpl8as_VMRegEv(ptr noundef nonnull align 1 dereferenceable(1) %6)
  %8 = load ptr, ptr %4, align 8
  call void @_ZN11RegisterMap12set_locationEP9VMRegImplPh(ptr noundef nonnull align 8 dereferenceable(4983) %5, ptr noundef %7, ptr noundef %8)
  %9 = load ptr, ptr %3, align 8
  %10 = call noundef ptr @_ZNK8RegisterptEv(ptr noundef nonnull align 4 dereferenceable(4) @_ZL3rbp)
  %11 = call noundef ptr @_ZNK8Register12RegisterImpl8as_VMRegEv(ptr noundef nonnull align 1 dereferenceable(1) %10)
  %12 = call noundef ptr @_ZN9VMRegImpl4nextEv(ptr noundef nonnull align 1 dereferenceable(1) %11)
  %13 = load ptr, ptr %4, align 8
  call void @_ZN11RegisterMap12set_locationEP9VMRegImplPh(ptr noundef nonnull align 8 dereferenceable(4983) %9, ptr noundef %12, ptr noundef %13)
  ret void
}

; Function Attrs: mustprogress nounwind uwtable
define linkonce_odr hidden noundef ptr @_ZNK5frame7addr_atEi(ptr noundef nonnull align 8 dereferenceable(56) %0, i32 noundef %1) #1 comdat align 2 {
  %3 = alloca ptr, align 8
  %4 = alloca i32, align 4
  store ptr %0, ptr %3, align 8
  store i32 %1, ptr %4, align 4
  %5 = load ptr, ptr %3, align 8
  %6 = call noundef ptr @_ZNK5frame2fpEv(ptr noundef nonnull align 8 dereferenceable(56) %5)
  %7 = load i32, ptr %4, align 4
  %8 = sext i32 %7 to i64
  %9 = getelementptr inbounds i64, ptr %6, i64 %8
  ret ptr %9
}

; Function Attrs: mustprogress nounwind uwtable
define linkonce_odr hidden noundef zeroext i1 @_ZNK11RegisterMap10update_mapEv(ptr noundef nonnull align 8 dereferenceable(4983) %0) #1 comdat align 2 {
  %2 = alloca ptr, align 8
  store ptr %0, ptr %2, align 8
  %3 = load ptr, ptr %2, align 8
  %4 = getelementptr inbounds %class.RegisterMap, ptr %3, i32 0, i32 7
  %5 = load i8, ptr %4, align 4
  %6 = trunc i8 %5 to i1
  ret i1 %6
}

; Function Attrs: mustprogress nounwind uwtable
define linkonce_odr hidden noundef ptr @_ZNK5frame4linkEv(ptr noundef nonnull align 8 dereferenceable(56) %0) #1 comdat align 2 {
  %2 = alloca ptr, align 8
  store ptr %0, ptr %2, align 8
  %3 = load ptr, ptr %2, align 8
  %4 = call noundef ptr @_ZNK5frame7addr_atEi(ptr noundef nonnull align 8 dereferenceable(56) %3, i32 noundef 0)
  %5 = load ptr, ptr %4, align 8
  ret ptr %5
}

; Function Attrs: mustprogress nounwind uwtable
define hidden noundef ptr @_ZNK5frame27interpreter_frame_sender_spEv(ptr noundef nonnull align 8 dereferenceable(56) %0) #1 align 2 {
  %2 = alloca ptr, align 8
  store ptr %0, ptr %2, align 8
  %3 = load ptr, ptr %2, align 8
  %4 = call noundef i64 @_ZNK5frame2atEi(ptr noundef nonnull align 8 dereferenceable(56) %3, i32 noundef -1)
  %5 = inttoptr i64 %4 to ptr
  ret ptr %5
}

; Function Attrs: mustprogress nounwind uwtable
define linkonce_odr hidden noundef ptr @_ZNK5frame9sender_spEv(ptr noundef nonnull align 8 dereferenceable(56) %0) #1 comdat align 2 {
  %2 = alloca ptr, align 8
  store ptr %0, ptr %2, align 8
  %3 = load ptr, ptr %2, align 8
  %4 = call noundef ptr @_ZNK5frame7addr_atEi(ptr noundef nonnull align 8 dereferenceable(56) %3, i32 noundef 2)
  ret ptr %4
}

; Function Attrs: mustprogress nounwind uwtable
define hidden void @_ZNK5frame28sender_for_interpreter_frameEP11RegisterMap(ptr dead_on_unwind noalias writable sret(%class.frame) align 8 %0, ptr noundef nonnull align 8 dereferenceable(56) %1, ptr noundef %2) #1 align 2 {
  %4 = alloca ptr, align 8
  %5 = alloca ptr, align 8
  %6 = alloca ptr, align 8
  %7 = alloca ptr, align 8
  %8 = alloca ptr, align 8
  %9 = alloca ptr, align 8
  store ptr %1, ptr %4, align 8
  store ptr %2, ptr %5, align 8
  %10 = load ptr, ptr %4, align 8
  %11 = call noundef ptr @_ZNK5frame9sender_spEv(ptr noundef nonnull align 8 dereferenceable(56) %10)
  store ptr %11, ptr %6, align 8
  %12 = call noundef ptr @_ZNK5frame27interpreter_frame_sender_spEv(ptr noundef nonnull align 8 dereferenceable(56) %10)
  store ptr %12, ptr %7, align 8
  %13 = call noundef ptr @_ZNK5frame4linkEv(ptr noundef nonnull align 8 dereferenceable(56) %10)
  store ptr %13, ptr %8, align 8
  %14 = load ptr, ptr %5, align 8
  %15 = call noundef zeroext i1 @_ZNK11RegisterMap10update_mapEv(ptr noundef nonnull align 8 dereferenceable(4983) %14)
  br i1 %15, label %16, label %19

16:                                               ; preds = %3
  %17 = load ptr, ptr %5, align 8
  %18 = call noundef ptr @_ZNK5frame7addr_atEi(ptr noundef nonnull align 8 dereferenceable(56) %10, i32 noundef 0)
  call void @_ZN5frame26update_map_with_saved_linkI11RegisterMapEEvPT_PPl(ptr noundef %17, ptr noundef %18)
  br label %19

19:                                               ; preds = %16, %3
  %20 = call noundef ptr @_ZNK5frame9sender_pcEv(ptr noundef nonnull align 8 dereferenceable(56) %10)
  store ptr %20, ptr %9, align 8
  %21 = load ptr, ptr %9, align 8
  %22 = call noundef zeroext i1 @_ZN12Continuation23is_return_barrier_entryEPh(ptr noundef %21)
  br i1 %22, label %23, label %32

23:                                               ; preds = %19
  %24 = load ptr, ptr %5, align 8
  %25 = call noundef zeroext i1 @_ZNK11RegisterMap9walk_contEv(ptr noundef nonnull align 8 dereferenceable(4983) %24)
  br i1 %25, label %26, label %28

26:                                               ; preds = %23
  %27 = load ptr, ptr %5, align 8
  call void @_ZN12Continuation9top_frameERK5frameP11RegisterMap(ptr dead_on_unwind writable sret(%class.frame) align 8 %0, ptr noundef nonnull align 8 dereferenceable(56) %10, ptr noundef %27)
  br label %37

28:                                               ; preds = %23
  %29 = load ptr, ptr %5, align 8
  %30 = call noundef ptr @_ZNK11RegisterMap6threadEv(ptr noundef nonnull align 8 dereferenceable(4983) %29)
  %31 = load ptr, ptr %6, align 8
  call void @_ZN12Continuation26continuation_bottom_senderEP10JavaThreadRK5framePl(ptr dead_on_unwind writable sret(%class.frame) align 8 %0, ptr noundef %30, ptr noundef nonnull align 8 dereferenceable(56) %10, ptr noundef %31)
  br label %37

32:                                               ; preds = %19
  %33 = load ptr, ptr %6, align 8
  %34 = load ptr, ptr %7, align 8
  %35 = load ptr, ptr %8, align 8
  %36 = load ptr, ptr %9, align 8
  call void @_ZN5frameC2EPlS0_S0_Ph(ptr noundef nonnull align 8 dereferenceable(56) %0, ptr noundef %33, ptr noundef %34, ptr noundef %35, ptr noundef %36)
  br label %37

37:                                               ; preds = %32, %28, %26
  ret void
}