; Function Attrs: mustprogress nounwind uwtable
define hidden void @_ZNK5frame28sender_for_interpreter_frameEP11RegisterMap(ptr dead_on_unwind noalias writable sret(%class.frame) align 8 %0, ptr noundef nonnull align 8 dereferenceable(56) %1, ptr noundef %2) local_unnamed_addr #0 align 2 {
  %4 = getelementptr inbounds i8, ptr %1, i64 40
  %5 = load ptr, ptr %4, align 8
  %6 = getelementptr inbounds i8, ptr %5, i64 16
  %7 = getelementptr inbounds i8, ptr %1, i64 36
  %8 = load i8, ptr %7, align 4
  %9 = trunc i8 %8 to i1
  %10 = getelementptr inbounds i8, ptr %5, i64 -8
  %11 = load i64, ptr %10, align 8
  %12 = getelementptr inbounds i64, ptr %5, i64 %11
  %13 = ptrtoint ptr %12 to i64
  %14 = select i1 %9, i64 %13, i64 %11
  %15 = inttoptr i64 %14 to ptr
  %16 = load ptr, ptr %5, align 8
  %17 = getelementptr inbounds i8, ptr %2, i64 4980
  %18 = load i8, ptr %17, align 4
  %19 = trunc i8 %18 to i1
  br i1 %19, label %20, label %26

20:                                               ; preds = %3
  %21 = getelementptr inbounds i8, ptr %2, i64 80
  store ptr %5, ptr %21, align 8
  %22 = getelementptr inbounds i8, ptr %2, i64 4872
  %23 = load i64, ptr %22, align 8
  %24 = getelementptr inbounds i8, ptr %2, i64 88
  store ptr %5, ptr %24, align 8
  %25 = or i64 %23, 3072
  store i64 %25, ptr %22, align 8
  %.pre = load ptr, ptr %4, align 8
  br label %26

26:                                               ; preds = %20, %3
  %27 = phi ptr [ %.pre, %20 ], [ %5, %3 ]
  %28 = getelementptr inbounds i8, ptr %27, i64 8
  %29 = load ptr, ptr %28, align 8
  %30 = tail call noundef zeroext i1 @_ZN12Continuation23is_return_barrier_entryEPh(ptr noundef %29) #8
  br i1 %30, label %31, label %39

31:                                               ; preds = %26
  %32 = getelementptr inbounds i8, ptr %2, i64 4982
  %33 = load i8, ptr %32, align 2
  %34 = trunc i8 %33 to i1
  br i1 %34, label %35, label %36

35:                                               ; preds = %31
  tail call void @_ZN12Continuation9top_frameERK5frameP11RegisterMap(ptr dead_on_unwind writable sret(%class.frame) align 8 %0, ptr noundef nonnull align 8 dereferenceable(56) %1, ptr noundef nonnull %2) #8
  br label %40

36:                                               ; preds = %31
  %37 = getelementptr inbounds i8, ptr %2, i64 4960
  %38 = load ptr, ptr %37, align 8
  tail call void @_ZN12Continuation26continuation_bottom_senderEP10JavaThreadRK5framePl(ptr dead_on_unwind writable sret(%class.frame) align 8 %0, ptr noundef %38, ptr noundef nonnull align 8 dereferenceable(56) %1, ptr noundef nonnull %6) #8
  br label %40

39:                                               ; preds = %26
  tail call void @_ZN5frameC2EPlS0_S0_Ph(ptr noundef nonnull align 8 dereferenceable(56) %0, ptr noundef nonnull %6, ptr noundef %15, ptr noundef %16, ptr noundef %29)
  br label %40

40:                                               ; preds = %39, %36, %35
  ret void
}